; Function Attrs: mustprogress uwtable
define noundef i32 @aiExportSceneEx(ptr noundef %pScene, ptr noundef %pFormatId, ptr noundef %pFileName, ptr noundef %pIO, i32 noundef %pPreprocessing) local_unnamed_addr #0 personality ptr @__gxx_personality_v0 {
entry:
  %exp = alloca %"class.Assimp::Exporter", align 8
  call void @_ZN6Assimp8ExporterC1Ev(ptr noundef nonnull align 8 dereferenceable(8) %exp)
  %tobool.not = icmp eq ptr %pIO, null
  br i1 %tobool.not, label %if.end, label %if.then

if.then:                                          ; preds = %entry
  %call = invoke noundef ptr @_ZN6Assimp6Intern22AllocateFromAssimpHeapnwEm(i64 noundef 40)
          to label %invoke.cont unwind label %lpad

invoke.cont:                                      ; preds = %if.then
  %m_pathStack.i.i = getelementptr inbounds i8, ptr %call, i64 8
  call void @llvm.memset.p0.i64(ptr noundef nonnull align 8 dereferenceable(24) %m_pathStack.i.i, i8 0, i64 24, i1 false)
  store ptr getelementptr inbounds ({ [16 x ptr] }, ptr @_ZTVN6Assimp16CIOSystemWrapperE, i64 0, i32 0, i64 2), ptr %call, align 8
  %mFileSystem.i = getelementptr inbounds i8, ptr %call, i64 32
  store ptr %pIO, ptr %mFileSystem.i, align 8
  invoke void @_ZN6Assimp8Exporter12SetIOHandlerEPNS_8IOSystemE(ptr noundef nonnull align 8 dereferenceable(8) %exp, ptr noundef nonnull %call)
          to label %if.end unwind label %lpad

lpad:                                             ; preds = %if.end, %invoke.cont, %if.then
  %0 = landingpad { ptr, i32 }
          cleanup
  call void @_ZN6Assimp8ExporterD1Ev(ptr noundef nonnull align 8 dereferenceable(8) %exp) #10
  resume { ptr, i32 } %0

if.end:                                           ; preds = %invoke.cont, %entry
  %call5 = invoke noundef i32 @_ZN6Assimp8Exporter6ExportEPK7aiScenePKcS5_jPKNS_16ExportPropertiesE(ptr noundef nonnull align 8 dereferenceable(8) %exp, ptr noundef %pScene, ptr noundef %pFormatId, ptr noundef %pFileName, i32 noundef %pPreprocessing, ptr noundef null)
          to label %invoke.cont4 unwind label %lpad

invoke.cont4:                                     ; preds = %if.end
  call void @_ZN6Assimp8ExporterD1Ev(ptr noundef nonnull align 8 dereferenceable(8) %exp) #10
  ret i32 %call5
}